; Function Attrs: mustprogress nounwind uwtable
define dso_local void @_ZN3net18SourceAddressTokenD0Ev(ptr noundef nonnull align 8 dereferenceable(56) %this) unnamed_addr #0 align 2 personality ptr @__gxx_personality_v0 {
entry:
  store ptr getelementptr inbounds ({ [18 x ptr] }, ptr @_ZTVN3net18SourceAddressTokenE, i64 0, i32 0, i64 2), ptr %this, align 8
  %_unknown_fields_.i.i = getelementptr inbounds i8, ptr %this, i64 8
  %0 = load ptr, ptr @_ZN6google8protobuf8internal13empty_string_B5cxx11E, align 8
  invoke void @_ZN6google8protobuf8internal14ArenaStringPtr14DestroyNoArenaEPKNSt7__cxx1112basic_stringIcSt11char_traitsIcESaIcEEE(ptr noundef nonnull align 8 dereferenceable(8) %_unknown_fields_.i.i, ptr noundef nonnull %0)
          to label %.noexc.i unwind label %terminate.lpad.i

.noexc.i:                                         ; preds = %entry
  %ip_.i.i = getelementptr inbounds i8, ptr %this, i64 32
  %1 = load ptr, ptr @_ZN6google8protobuf8internal13empty_string_B5cxx11E, align 8
  invoke void @_ZN6google8protobuf8internal14ArenaStringPtr14DestroyNoArenaEPKNSt7__cxx1112basic_stringIcSt11char_traitsIcESaIcEEE(ptr noundef nonnull align 8 dereferenceable(8) %ip_.i.i, ptr noundef nonnull %1)
          to label %.noexc1.i unwind label %terminate.lpad.i

.noexc1.i:                                        ; preds = %.noexc.i
  %2 = load ptr, ptr @_ZN3net18SourceAddressToken17default_instance_E, align 8
  %cmp.not.i.i = icmp eq ptr %2, %this
  br i1 %cmp.not.i.i, label %_ZN3net18SourceAddressTokenD2Ev.exit, label %if.then.i.i

if.then.i.i:                                      ; preds = %.noexc1.i
  %cached_network_parameters_.i.i = getelementptr inbounds i8, ptr %this, i64 48
  %3 = load ptr, ptr %cached_network_parameters_.i.i, align 8
  %isnull.i.i = icmp eq ptr %3, null
  br i1 %isnull.i.i, label %_ZN3net18SourceAddressTokenD2Ev.exit, label %delete.notnull.i.i

delete.notnull.i.i:                               ; preds = %if.then.i.i
  %vtable.i.i = load ptr, ptr %3, align 8
  %vfn.i.i = getelementptr inbounds i8, ptr %vtable.i.i, i64 8
  %4 = load ptr, ptr %vfn.i.i, align 8
  tail call void %4(ptr noundef nonnull align 8 dereferenceable(72) %3) #14
  br label %_ZN3net18SourceAddressTokenD2Ev.exit

terminate.lpad.i:                                 ; preds = %.noexc.i, %entry
  %5 = landingpad { ptr, i32 }
          catch ptr null
  %6 = extractvalue { ptr, i32 } %5, 0
  tail call void @__clang_call_terminate(ptr %6) #17
  unreachable

_ZN3net18SourceAddressTokenD2Ev.exit:             ; preds = %.noexc1.i, %if.then.i.i, %delete.notnull.i.i
  tail call void @_ZN6google8protobuf11MessageLiteD2Ev(ptr noundef nonnull align 8 dereferenceable(8) %this) #14
  tail call void @_ZdlPv(ptr noundef nonnull %this) #16
  ret void
}